target datalayout = "e-m:e-p270:32:32-p271:32:32-p272:64:64-i64:64-i128:128-f80:128-n8:16:32:64-S128"
target triple = "x86_64-pc-linux-gnu"

@base_yyout = external global ptr, align 8
@compat = external global i32, align 4
@connection = external global ptr, align 8
@.str.8 = private unnamed_addr constant [5 x i8] c"NULL\00", align 1
@.str.16 = private unnamed_addr constant [3 x i8] c");\00", align 1
@.str.17 = private unnamed_addr constant [4 x i8] c"all\00", align 1
@.str.18 = private unnamed_addr constant [36 x i8] c"{ ECPGdeallocate(__LINE__, %d, %s, \00", align 1
@.str.19 = private unnamed_addr constant [40 x i8] c"{ ECPGdeallocate_all(__LINE__, %d, %s);\00", align 1

; Function Attrs: nounwind uwtable
define dso_local void @output_deallocate_prepare_statement(ptr noundef %0) #0 {
  %2 = alloca ptr, align 8
  %3 = alloca ptr, align 8
  store ptr %0, ptr %2, align 8
  call void @llvm.lifetime.start.p0(i64 8, ptr %3) #5
  %4 = load ptr, ptr @connection, align 8
  %5 = icmp ne ptr %4, null
  br i1 %5, label %6, label %8

6:                                                ; preds = %1
  %7 = load ptr, ptr @connection, align 8
  br label %9

8:                                                ; preds = %1
  br label %9

9:                                                ; preds = %8, %6
  %10 = phi ptr [ %7, %6 ], [ @.str.8, %8 ]
  store ptr %10, ptr %3, align 8
  %11 = load ptr, ptr %2, align 8
  %12 = call i32 @strcmp(ptr noundef %11, ptr noundef @.str.17) #6
  %13 = icmp ne i32 %12, 0
  br i1 %13, label %14, label %22

14:                                               ; preds = %9
  %15 = load ptr, ptr @base_yyout, align 8
  %16 = load i32, ptr @compat, align 4
  %17 = load ptr, ptr %3, align 8
  %18 = call i32 (ptr, ptr, ...) @pg_fprintf(ptr noundef %15, ptr noundef @.str.18, i32 noundef %16, ptr noundef %17)
  %19 = load ptr, ptr %2, align 8
  call void @output_escaped_str(ptr noundef %19, i1 noundef zeroext true)
  %20 = load ptr, ptr @base_yyout, align 8
  %21 = call i32 @fputs(ptr noundef @.str.16, ptr noundef %20)
  br label %27

22:                                               ; preds = %9
  %23 = load ptr, ptr @base_yyout, align 8
  %24 = load i32, ptr @compat, align 4
  %25 = load ptr, ptr %3, align 8
  %26 = call i32 (ptr, ptr, ...) @pg_fprintf(ptr noundef %23, ptr noundef @.str.19, i32 noundef %24, ptr noundef %25)
  br label %27

27:                                               ; preds = %22, %14
  call void @whenever_action(i32 noundef 2)
  call void @llvm.lifetime.end.p0(i64 8, ptr %3) #5
  ret void
}