; Function Attrs: nounwind uwtable
define dso_local void @output_deallocate_prepare_statement(ptr noundef readonly captures(none) %0) local_unnamed_addr #0 {
  %2 = load ptr, ptr @connection, align 8
  %.not = icmp eq ptr %2, null
  %3 = select i1 %.not, ptr @.str.8, ptr %2
  %4 = tail call i32 @strcmp(ptr noundef nonnull dereferenceable(1) %0, ptr noundef nonnull dereferenceable(4) @.str.17) #8
  %.not4 = icmp eq i32 %4, 0
  %5 = load ptr, ptr @base_yyout, align 8
  %6 = load i32, ptr @compat, align 4
  br i1 %.not4, label %11, label %7

7:                                                ; preds = %1
  %8 = tail call i32 (ptr, ptr, ...) @pg_fprintf(ptr noundef %5, ptr noundef nonnull @.str.18, i32 noundef %6, ptr noundef nonnull %3) #7
  tail call fastcc void @output_escaped_str(ptr noundef nonnull %0, i1 noundef zeroext true)
  %9 = load ptr, ptr @base_yyout, align 8
  %10 = tail call i64 @fwrite(ptr nonnull @.str.16, i64 2, i64 1, ptr %9)
  br label %13

11:                                               ; preds = %1
  %12 = tail call i32 (ptr, ptr, ...) @pg_fprintf(ptr noundef %5, ptr noundef nonnull @.str.19, i32 noundef %6, ptr noundef nonnull %3) #7
  br label %13

13:                                               ; preds = %11, %7
  tail call void @whenever_action(i32 noundef 2)
  ret void
}